target datalayout = "e-m:e-p270:32:32-p271:32:32-p272:64:64-i64:64-i128:128-f80:128-n8:16:32:64-S128"
target triple = "x86_64-pc-linux-gnu"

%struct.URLContext = type { ptr, ptr, ptr, ptr, i32, i32, i32, i32, %struct.AVIOInterruptCB, i64, ptr, ptr, i32 }
%struct.AVIOInterruptCB = type { ptr, ptr }
%struct.URLProtocol = type { ptr, ptr, ptr, ptr, ptr, ptr, ptr, ptr, ptr, ptr, ptr, ptr, ptr, ptr, ptr, ptr, i32, i32, ptr, ptr, ptr, ptr, ptr, ptr, ptr }
%struct.AVIODirContext = type { ptr }

@.str.2 = private unnamed_addr constant [30 x i8] c"Assertion %s failed at %s:%d\0A\00", align 1
@.str.4 = private unnamed_addr constant [19 x i8] c"libavformat/avio.c\00", align 1
@.str.17 = private unnamed_addr constant [2 x i8] c"s\00", align 1

; Function Attrs: nounwind uwtable
define i32 @ffurl_close(ptr noundef %0) #1 {
  %2 = alloca ptr, align 8
  store ptr %0, ptr %2, align 8, !tbaa !22
  %3 = call i32 @ffurl_closep(ptr noundef %2)
  ret i32 %3
}

; Function Attrs: nounwind uwtable
define i32 @avio_close_dir(ptr noundef %0) #1 {
  %2 = alloca i32, align 4
  %3 = alloca ptr, align 8
  %4 = alloca ptr, align 8
  %5 = alloca i32, align 4
  store ptr %0, ptr %3, align 8, !tbaa !102
  call void @llvm.lifetime.start.p0(i64 8, ptr %4) #10
  br label %6

6:                                                ; preds = %1
  %7 = load ptr, ptr %3, align 8, !tbaa !102
  %8 = icmp ne ptr %7, null
  br i1 %8, label %10, label %9

9:                                                ; preds = %6
  call void (ptr, i32, ptr, ...) @av_log(ptr noundef null, i32 noundef 0, ptr noundef @.str.2, ptr noundef @.str.17, ptr noundef @.str.4, i32 noundef 780)
  call void @abort() #12
  unreachable

10:                                               ; preds = %6
  br label %11

11:                                               ; preds = %10
  br label %12

12:                                               ; preds = %11
  %13 = load ptr, ptr %3, align 8, !tbaa !102
  %14 = load ptr, ptr %13, align 8, !tbaa !104
  %15 = icmp ne ptr %14, null
  br i1 %15, label %16, label %22

16:                                               ; preds = %12
  %17 = load ptr, ptr %3, align 8, !tbaa !102
  %18 = load ptr, ptr %17, align 8, !tbaa !104
  %19 = getelementptr inbounds nuw %struct.AVIODirContext, ptr %18, i32 0, i32 0
  %20 = load ptr, ptr %19, align 8, !tbaa !109
  %21 = icmp ne ptr %20, null
  br i1 %21, label %23, label %22

22:                                               ; preds = %16, %12
  store i32 -22, ptr %2, align 4
  store i32 1, ptr %5, align 4
  br label %39

23:                                               ; preds = %16
  %24 = load ptr, ptr %3, align 8, !tbaa !102
  %25 = load ptr, ptr %24, align 8, !tbaa !104
  %26 = getelementptr inbounds nuw %struct.AVIODirContext, ptr %25, i32 0, i32 0
  %27 = load ptr, ptr %26, align 8, !tbaa !109
  store ptr %27, ptr %4, align 8, !tbaa !22
  %28 = load ptr, ptr %4, align 8, !tbaa !22
  %29 = getelementptr inbounds nuw %struct.URLContext, ptr %28, i32 0, i32 1
  %30 = load ptr, ptr %29, align 8, !tbaa !38
  %31 = getelementptr inbounds nuw %struct.URLProtocol, ptr %30, i32 0, i32 21
  %32 = load ptr, ptr %31, align 8, !tbaa !108
  %33 = load ptr, ptr %4, align 8, !tbaa !22
  %34 = call i32 %32(ptr noundef %33)
  %35 = load ptr, ptr %4, align 8, !tbaa !22
  %36 = call i32 @ffurl_close(ptr noundef %35)
  %37 = load ptr, ptr %3, align 8, !tbaa !102
  call void @av_freep(ptr noundef %37)
  %38 = load ptr, ptr %3, align 8, !tbaa !102
  store ptr null, ptr %38, align 8, !tbaa !104
  store i32 0, ptr %2, align 4
  store i32 1, ptr %5, align 4
  br label %39

39:                                               ; preds = %23, %22
  call void @llvm.lifetime.end.p0(i64 8, ptr %4) #10
  %40 = load i32, ptr %2, align 4
  ret i32 %40
}