; Function Attrs: nounwind uwtable
define range(i32 -22, 1) i32 @avio_close_dir(ptr noundef %0) local_unnamed_addr #3 {
  %2 = alloca ptr, align 8
  %.not = icmp eq ptr %0, null
  br i1 %.not, label %3, label %4

3:                                                ; preds = %1
  tail call void (ptr, i32, ptr, ...) @av_log(ptr noundef null, i32 noundef 0, ptr noundef nonnull @.str.2, ptr noundef nonnull @.str.17, ptr noundef nonnull @.str.4, i32 noundef 780) #12
  tail call void @abort() #14
  unreachable

4:                                                ; preds = %1
  %5 = load ptr, ptr %0, align 8, !tbaa !94
  %.not12 = icmp eq ptr %5, null
  br i1 %.not12, label %15, label %6

6:                                                ; preds = %4
  %7 = load ptr, ptr %5, align 8, !tbaa !92
  %.not13 = icmp eq ptr %7, null
  br i1 %.not13, label %15, label %8

8:                                                ; preds = %6
  %9 = getelementptr inbounds nuw i8, ptr %7, i64 8
  %10 = load ptr, ptr %9, align 8, !tbaa !21
  %11 = getelementptr inbounds nuw i8, ptr %10, i64 160
  %12 = load ptr, ptr %11, align 8, !tbaa !91
  %13 = tail call i32 %12(ptr noundef nonnull %7) #12
  call void @llvm.lifetime.start.p0(i64 8, ptr nonnull %2)
  store ptr %7, ptr %2, align 8, !tbaa !41
  %14 = call i32 @ffurl_closep(ptr noundef nonnull %2)
  call void @llvm.lifetime.end.p0(i64 8, ptr nonnull %2)
  call void @av_freep(ptr noundef nonnull %0) #12
  store ptr null, ptr %0, align 8, !tbaa !94
  br label %15

15:                                               ; preds = %4, %6, %8
  %.0 = phi i32 [ 0, %8 ], [ -22, %6 ], [ -22, %4 ]
  ret i32 %.0
}